target datalayout = "e-m:e-p270:32:32-p271:32:32-p272:64:64-i64:64-i128:128-f80:128-n8:16:32:64-S128"
target triple = "x86_64-pc-linux-gnu"

%struct.Tru_Man_t_ = type { i32, i32, i32, i32, ptr, ptr, ptr, [16 x i32], i32 }
%struct.Vec_Set_t_ = type { i32, i32, i32, i32, i32, i32, ptr }

@.str = private unnamed_addr constant [29 x i8] c"Lookups = %d. Entries = %d.\0A\00", align 1

; Function Attrs: inlinehint nounwind uwtable
define internal void @Vec_SetFree_(ptr noundef %0) #2 {
  %2 = alloca ptr, align 8
  %3 = alloca i32, align 4
  %4 = alloca i32, align 4
  store ptr %0, ptr %2, align 8, !tbaa !37
  call void @llvm.lifetime.start.p0(i64 4, ptr %3) #10
  %5 = load ptr, ptr %2, align 8, !tbaa !37
  %6 = icmp eq ptr %5, null
  br i1 %6, label %7, label %8

7:                                                ; preds = %1
  store i32 1, ptr %4, align 4
  br label %56

8:                                                ; preds = %1
  store i32 0, ptr %3, align 4, !tbaa !18
  br label %9

9:                                                ; preds = %40, %8
  %10 = load i32, ptr %3, align 4, !tbaa !18
  %11 = load ptr, ptr %2, align 8, !tbaa !37
  %12 = getelementptr inbounds nuw %struct.Vec_Set_t_, ptr %11, i32 0, i32 5
  %13 = load i32, ptr %12, align 4, !tbaa !45
  %14 = icmp slt i32 %10, %13
  br i1 %14, label %15, label %43

15:                                               ; preds = %9
  %16 = load ptr, ptr %2, align 8, !tbaa !37
  %17 = getelementptr inbounds nuw %struct.Vec_Set_t_, ptr %16, i32 0, i32 6
  %18 = load ptr, ptr %17, align 8, !tbaa !42
  %19 = load i32, ptr %3, align 4, !tbaa !18
  %20 = sext i32 %19 to i64
  %21 = getelementptr inbounds ptr, ptr %18, i64 %20
  %22 = load ptr, ptr %21, align 8, !tbaa !8
  %23 = icmp ne ptr %22, null
  br i1 %23, label %24, label %38

24:                                               ; preds = %15
  %25 = load ptr, ptr %2, align 8, !tbaa !37
  %26 = getelementptr inbounds nuw %struct.Vec_Set_t_, ptr %25, i32 0, i32 6
  %27 = load ptr, ptr %26, align 8, !tbaa !42
  %28 = load i32, ptr %3, align 4, !tbaa !18
  %29 = sext i32 %28 to i64
  %30 = getelementptr inbounds ptr, ptr %27, i64 %29
  %31 = load ptr, ptr %30, align 8, !tbaa !8
  call void @free(ptr noundef %31) #10
  %32 = load ptr, ptr %2, align 8, !tbaa !37
  %33 = getelementptr inbounds nuw %struct.Vec_Set_t_, ptr %32, i32 0, i32 6
  %34 = load ptr, ptr %33, align 8, !tbaa !42
  %35 = load i32, ptr %3, align 4, !tbaa !18
  %36 = sext i32 %35 to i64
  %37 = getelementptr inbounds ptr, ptr %34, i64 %36
  store ptr null, ptr %37, align 8, !tbaa !8
  br label %39

38:                                               ; preds = %15
  br label %39

39:                                               ; preds = %38, %24
  br label %40

40:                                               ; preds = %39
  %41 = load i32, ptr %3, align 4, !tbaa !18
  %42 = add nsw i32 %41, 1
  store i32 %42, ptr %3, align 4, !tbaa !18
  br label %9, !llvm.loop !53

43:                                               ; preds = %9
  %44 = load ptr, ptr %2, align 8, !tbaa !37
  %45 = getelementptr inbounds nuw %struct.Vec_Set_t_, ptr %44, i32 0, i32 6
  %46 = load ptr, ptr %45, align 8, !tbaa !42
  %47 = icmp ne ptr %46, null
  br i1 %47, label %48, label %54

48:                                               ; preds = %43
  %49 = load ptr, ptr %2, align 8, !tbaa !37
  %50 = getelementptr inbounds nuw %struct.Vec_Set_t_, ptr %49, i32 0, i32 6
  %51 = load ptr, ptr %50, align 8, !tbaa !42
  call void @free(ptr noundef %51) #10
  %52 = load ptr, ptr %2, align 8, !tbaa !37
  %53 = getelementptr inbounds nuw %struct.Vec_Set_t_, ptr %52, i32 0, i32 6
  store ptr null, ptr %53, align 8, !tbaa !42
  br label %55

54:                                               ; preds = %43
  br label %55

55:                                               ; preds = %54, %48
  store i32 0, ptr %4, align 4
  br label %56

56:                                               ; preds = %55, %7
  call void @llvm.lifetime.end.p0(i64 4, ptr %3) #10
  %57 = load i32, ptr %4, align 4
  switch i32 %57, label %59 [
    i32 0, label %58
    i32 1, label %58
  ]

58:                                               ; preds = %56, %56
  ret void

59:                                               ; preds = %56
  unreachable
}

; Function Attrs: inlinehint nounwind uwtable
define internal void @Vec_SetFree(ptr noundef %0) #2 {
  %2 = alloca ptr, align 8
  store ptr %0, ptr %2, align 8, !tbaa !37
  %3 = load ptr, ptr %2, align 8, !tbaa !37
  %4 = icmp eq ptr %3, null
  br i1 %4, label %5, label %6

5:                                                ; preds = %1
  br label %14

6:                                                ; preds = %1
  %7 = load ptr, ptr %2, align 8, !tbaa !37
  call void @Vec_SetFree_(ptr noundef %7)
  %8 = load ptr, ptr %2, align 8, !tbaa !37
  %9 = icmp ne ptr %8, null
  br i1 %9, label %10, label %12

10:                                               ; preds = %6
  %11 = load ptr, ptr %2, align 8, !tbaa !37
  call void @free(ptr noundef %11) #10
  store ptr null, ptr %2, align 8, !tbaa !37
  br label %13

12:                                               ; preds = %6
  br label %13

13:                                               ; preds = %12, %10
  br label %14

14:                                               ; preds = %13, %5
  ret void
}

; Function Attrs: inlinehint nounwind uwtable
define internal i32 @Vec_SetEntryNum(ptr noundef %0) #2 {
  %2 = alloca ptr, align 8
  store ptr %0, ptr %2, align 8, !tbaa !37
  %3 = load ptr, ptr %2, align 8, !tbaa !37
  %4 = getelementptr inbounds nuw %struct.Vec_Set_t_, ptr %3, i32 0, i32 2
  %5 = load i32, ptr %4, align 8, !tbaa !38
  ret i32 %5
}

; Function Attrs: nounwind uwtable
define void @Tru_ManFree(ptr noundef %0) #0 {
  %2 = alloca ptr, align 8
  store ptr %0, ptr %2, align 8, !tbaa !3
  %3 = load ptr, ptr %2, align 8, !tbaa !3
  %4 = getelementptr inbounds nuw %struct.Tru_Man_t_, ptr %3, i32 0, i32 8
  %5 = load i32, ptr %4, align 8, !tbaa !33
  %6 = load ptr, ptr %2, align 8, !tbaa !3
  %7 = getelementptr inbounds nuw %struct.Tru_Man_t_, ptr %6, i32 0, i32 5
  %8 = load ptr, ptr %7, align 8, !tbaa !26
  %9 = call i32 @Vec_SetEntryNum(ptr noundef %8)
  %10 = call i32 (ptr, ...) @printf(ptr noundef @.str, i32 noundef %5, i32 noundef %9)
  %11 = load ptr, ptr %2, align 8, !tbaa !3
  %12 = getelementptr inbounds nuw %struct.Tru_Man_t_, ptr %11, i32 0, i32 5
  %13 = load ptr, ptr %12, align 8, !tbaa !26
  call void @Vec_SetFree(ptr noundef %13)
  %14 = load ptr, ptr %2, align 8, !tbaa !3
  %15 = getelementptr inbounds nuw %struct.Tru_Man_t_, ptr %14, i32 0, i32 6
  %16 = load ptr, ptr %15, align 8, !tbaa !48
  %17 = icmp ne ptr %16, null
  br i1 %17, label %18, label %24

18:                                               ; preds = %1
  %19 = load ptr, ptr %2, align 8, !tbaa !3
  %20 = getelementptr inbounds nuw %struct.Tru_Man_t_, ptr %19, i32 0, i32 6
  %21 = load ptr, ptr %20, align 8, !tbaa !48
  call void @free(ptr noundef %21) #10
  %22 = load ptr, ptr %2, align 8, !tbaa !3
  %23 = getelementptr inbounds nuw %struct.Tru_Man_t_, ptr %22, i32 0, i32 6
  store ptr null, ptr %23, align 8, !tbaa !48
  br label %25

24:                                               ; preds = %1
  br label %25

25:                                               ; preds = %24, %18
  %26 = load ptr, ptr %2, align 8, !tbaa !3
  %27 = getelementptr inbounds nuw %struct.Tru_Man_t_, ptr %26, i32 0, i32 4
  %28 = load ptr, ptr %27, align 8, !tbaa !10
  %29 = icmp ne ptr %28, null
  br i1 %29, label %30, label %36

30:                                               ; preds = %25
  %31 = load ptr, ptr %2, align 8, !tbaa !3
  %32 = getelementptr inbounds nuw %struct.Tru_Man_t_, ptr %31, i32 0, i32 4
  %33 = load ptr, ptr %32, align 8, !tbaa !10
  call void @free(ptr noundef %33) #10
  %34 = load ptr, ptr %2, align 8, !tbaa !3
  %35 = getelementptr inbounds nuw %struct.Tru_Man_t_, ptr %34, i32 0, i32 4
  store ptr null, ptr %35, align 8, !tbaa !10
  br label %37

36:                                               ; preds = %25
  br label %37

37:                                               ; preds = %36, %30
  %38 = load ptr, ptr %2, align 8, !tbaa !3
  %39 = icmp ne ptr %38, null
  br i1 %39, label %40, label %42

40:                                               ; preds = %37
  %41 = load ptr, ptr %2, align 8, !tbaa !3
  call void @free(ptr noundef %41) #10
  store ptr null, ptr %2, align 8, !tbaa !3
  br label %43

42:                                               ; preds = %37
  br label %43

43:                                               ; preds = %42, %40
  ret void
}