; Function Attrs: nounwind uwtable
define void @Tru_ManFree(ptr noundef captures(none) %0) local_unnamed_addr #2 {
  %2 = getelementptr inbounds nuw i8, ptr %0, i64 104
  %3 = load i32, ptr %2, align 8, !tbaa !35
  %4 = getelementptr inbounds nuw i8, ptr %0, i64 24
  %5 = load ptr, ptr %4, align 8, !tbaa !19
  %6 = getelementptr i8, ptr %5, i64 8
  %.val = load i32, ptr %6, align 8, !tbaa !36
  %7 = tail call i32 (ptr, ...) @printf(ptr noundef nonnull dereferenceable(1) @.str, i32 noundef %3, i32 noundef %.val)
  %8 = load ptr, ptr %4, align 8, !tbaa !19
  %9 = icmp eq ptr %8, null
  br i1 %9, label %Vec_SetFree.exit, label %10

10:                                               ; preds = %1
  %11 = getelementptr inbounds nuw i8, ptr %8, i64 20
  %12 = load i32, ptr %11, align 4, !tbaa !40
  %13 = icmp sgt i32 %12, 0
  %14 = getelementptr inbounds nuw i8, ptr %8, i64 24
  %.pre.i.i = load ptr, ptr %14, align 8, !tbaa !20
  br i1 %13, label %.lr.ph.i.i, label %._crit_edge.i.i

.lr.ph.i.i:                                       ; preds = %10, %22
  %15 = phi i32 [ %23, %22 ], [ %12, %10 ]
  %16 = phi ptr [ %24, %22 ], [ %.pre.i.i, %10 ]
  %indvars.iv.i.i = phi i64 [ %indvars.iv.next.i.i, %22 ], [ 0, %10 ]
  %17 = getelementptr inbounds nuw ptr, ptr %16, i64 %indvars.iv.i.i
  %18 = load ptr, ptr %17, align 8, !tbaa !24
  %.not15.i.i = icmp eq ptr %18, null
  br i1 %.not15.i.i, label %22, label %19

19:                                               ; preds = %.lr.ph.i.i
  tail call void @free(ptr noundef nonnull %18) #11
  %20 = load ptr, ptr %14, align 8, !tbaa !20
  %21 = getelementptr inbounds nuw ptr, ptr %20, i64 %indvars.iv.i.i
  store ptr null, ptr %21, align 8, !tbaa !24
  %.pre18.i.i = load i32, ptr %11, align 4, !tbaa !40
  br label %22

22:                                               ; preds = %19, %.lr.ph.i.i
  %23 = phi i32 [ %.pre18.i.i, %19 ], [ %15, %.lr.ph.i.i ]
  %24 = phi ptr [ %20, %19 ], [ %16, %.lr.ph.i.i ]
  %indvars.iv.next.i.i = add nuw nsw i64 %indvars.iv.i.i, 1
  %25 = sext i32 %23 to i64
  %26 = icmp slt i64 %indvars.iv.next.i.i, %25
  br i1 %26, label %.lr.ph.i.i, label %._crit_edge.thread.i.i, !llvm.loop !46

._crit_edge.i.i:                                  ; preds = %10
  %.not.i.i = icmp eq ptr %.pre.i.i, null
  br i1 %.not.i.i, label %Vec_SetFree_.exit.i, label %._crit_edge.thread.i.i

._crit_edge.thread.i.i:                           ; preds = %22, %._crit_edge.i.i
  %27 = phi ptr [ %.pre.i.i, %._crit_edge.i.i ], [ %24, %22 ]
  tail call void @free(ptr noundef nonnull %27) #11
  br label %Vec_SetFree_.exit.i

Vec_SetFree_.exit.i:                              ; preds = %._crit_edge.thread.i.i, %._crit_edge.i.i
  tail call void @free(ptr noundef nonnull %8) #11
  br label %Vec_SetFree.exit

Vec_SetFree.exit:                                 ; preds = %1, %Vec_SetFree_.exit.i
  %28 = getelementptr inbounds nuw i8, ptr %0, i64 32
  %29 = load ptr, ptr %28, align 8, !tbaa !43
  %.not = icmp eq ptr %29, null
  br i1 %.not, label %31, label %30

30:                                               ; preds = %Vec_SetFree.exit
  tail call void @free(ptr noundef nonnull %29) #11
  store ptr null, ptr %28, align 8, !tbaa !43
  br label %31

31:                                               ; preds = %Vec_SetFree.exit, %30
  %32 = getelementptr inbounds nuw i8, ptr %0, i64 16
  %33 = load ptr, ptr %32, align 8, !tbaa !3
  %.not13 = icmp eq ptr %33, null
  br i1 %.not13, label %35, label %34

34:                                               ; preds = %31
  tail call void @free(ptr noundef nonnull %33) #11
  br label %35

35:                                               ; preds = %31, %34
  tail call void @free(ptr noundef nonnull %0) #11
  ret void
}